target datalayout = "e-m:e-p270:32:32-p271:32:32-p272:64:64-i64:64-i128:128-f80:128-n8:16:32:64-S128"
target triple = "x86_64-pc-linux-gnu"

%struct.RelFileLocator = type { i32, i32, i32 }
%struct.XLogDumpConfig = type { i8, i8, i32, i32, i8, i8, i8, [256 x i8], i8, i32, i8, %struct.RelFileLocator, i8, i8, i32, i8, i32, i8, ptr }
%struct.XLogReaderRoutine = type { ptr, ptr, ptr }
%struct.RmgrDescData = type { ptr, ptr, ptr }
%struct.XLogRecord = type { i32, i32, i64, i8, i8, i32 }
%struct.XLogReaderState = type { %struct.XLogReaderRoutine, i64, ptr, i64, i64, i64, i64, i64, i64, i64, i64, ptr, ptr, i64, i8, ptr, ptr, ptr, ptr, ptr, i32, %struct.WALSegmentContext, %struct.WALOpenSegment, i32, i64, i32, i64, i32, i64, i32, ptr, i32, ptr, i8, i8 }
%struct.WALSegmentContext = type { [1024 x i8], i32 }
%struct.WALOpenSegment = type { i32, i64, i32 }
%struct.DecodedXLogRecord = type { i64, i8, ptr, i64, i64, %struct.XLogRecord, i16, i32, ptr, i32, i32, [0 x %struct.DecodedBkpBlock] }
%struct.DecodedBkpBlock = type { i8, %struct.RelFileLocator, i32, i32, i32, i8, i8, i8, ptr, i16, i16, i16, i8, i8, ptr, i16, i16 }
%struct.StringInfoData = type { ptr, i32, i32, i32 }

@.str.111 = private unnamed_addr constant [75 x i8] c"rmgr: %-11s len (rec/tot): %6u/%6u, tx: %10u, lsn: %X/%08X, prev %X/%08X, \00", align 1
@.str.112 = private unnamed_addr constant [20 x i8] c"desc: UNKNOWN (%x) \00", align 1
@.str.113 = private unnamed_addr constant [10 x i8] c"desc: %s \00", align 1
@.str.114 = private unnamed_addr constant [3 x i8] c"%s\00", align 1

; Function Attrs: nounwind uwtable
define internal void @XLogDumpDisplayRecord(ptr noundef %0, ptr noundef %1) #0 {
  %3 = alloca ptr, align 8
  %4 = alloca ptr, align 8
  %5 = alloca ptr, align 8
  %6 = alloca ptr, align 8
  %7 = alloca i32, align 4
  %8 = alloca i32, align 4
  %9 = alloca i8, align 1
  %10 = alloca i64, align 8
  %11 = alloca %struct.StringInfoData, align 8
  %12 = alloca i32, align 4
  %13 = alloca i32, align 4
  store ptr %0, ptr %3, align 8
  store ptr %1, ptr %4, align 8
  call void @llvm.lifetime.start.p0(i64 8, ptr %5) #10
  call void @llvm.lifetime.start.p0(i64 8, ptr %6) #10
  %14 = load ptr, ptr %4, align 8
  %15 = getelementptr inbounds nuw %struct.XLogReaderState, ptr %14, i32 0, i32 11
  %16 = load ptr, ptr %15, align 8
  %17 = getelementptr inbounds nuw %struct.DecodedXLogRecord, ptr %16, i32 0, i32 5
  %18 = getelementptr inbounds nuw %struct.XLogRecord, ptr %17, i32 0, i32 4
  %19 = load i8, ptr %18, align 1
  %20 = call ptr @GetRmgrDesc(i8 noundef zeroext %19)
  store ptr %20, ptr %6, align 8
  call void @llvm.lifetime.start.p0(i64 4, ptr %7) #10
  call void @llvm.lifetime.start.p0(i64 4, ptr %8) #10
  call void @llvm.lifetime.start.p0(i64 1, ptr %9) #10
  %21 = load ptr, ptr %4, align 8
  %22 = getelementptr inbounds nuw %struct.XLogReaderState, ptr %21, i32 0, i32 11
  %23 = load ptr, ptr %22, align 8
  %24 = getelementptr inbounds nuw %struct.DecodedXLogRecord, ptr %23, i32 0, i32 5
  %25 = getelementptr inbounds nuw %struct.XLogRecord, ptr %24, i32 0, i32 3
  %26 = load i8, ptr %25, align 8
  store i8 %26, ptr %9, align 1
  call void @llvm.lifetime.start.p0(i64 8, ptr %10) #10
  %27 = load ptr, ptr %4, align 8
  %28 = getelementptr inbounds nuw %struct.XLogReaderState, ptr %27, i32 0, i32 11
  %29 = load ptr, ptr %28, align 8
  %30 = getelementptr inbounds nuw %struct.DecodedXLogRecord, ptr %29, i32 0, i32 5
  %31 = getelementptr inbounds nuw %struct.XLogRecord, ptr %30, i32 0, i32 2
  %32 = load i64, ptr %31, align 8
  store i64 %32, ptr %10, align 8
  call void @llvm.lifetime.start.p0(i64 24, ptr %11) #10
  %33 = load ptr, ptr %4, align 8
  call void @XLogRecGetLen(ptr noundef %33, ptr noundef %7, ptr noundef %8)
  %34 = load ptr, ptr %6, align 8
  %35 = getelementptr inbounds nuw %struct.RmgrDescData, ptr %34, i32 0, i32 0
  %36 = load ptr, ptr %35, align 8
  %37 = load i32, ptr %7, align 4
  %38 = load ptr, ptr %4, align 8
  %39 = getelementptr inbounds nuw %struct.XLogReaderState, ptr %38, i32 0, i32 11
  %40 = load ptr, ptr %39, align 8
  %41 = getelementptr inbounds nuw %struct.DecodedXLogRecord, ptr %40, i32 0, i32 5
  %42 = getelementptr inbounds nuw %struct.XLogRecord, ptr %41, i32 0, i32 0
  %43 = load i32, ptr %42, align 8
  %44 = load ptr, ptr %4, align 8
  %45 = getelementptr inbounds nuw %struct.XLogReaderState, ptr %44, i32 0, i32 11
  %46 = load ptr, ptr %45, align 8
  %47 = getelementptr inbounds nuw %struct.DecodedXLogRecord, ptr %46, i32 0, i32 5
  %48 = getelementptr inbounds nuw %struct.XLogRecord, ptr %47, i32 0, i32 1
  %49 = load i32, ptr %48, align 4
  br label %50

50:                                               ; preds = %2
  br label %51

51:                                               ; preds = %50
  br label %52

52:                                               ; preds = %51
  store i32 1, ptr %12, align 4
  %53 = load ptr, ptr %4, align 8
  %54 = getelementptr inbounds nuw %struct.XLogReaderState, ptr %53, i32 0, i32 3
  %55 = load i64, ptr %54, align 8
  %56 = lshr i64 %55, 32
  %57 = trunc i64 %56 to i32
  %58 = load ptr, ptr %4, align 8
  %59 = getelementptr inbounds nuw %struct.XLogReaderState, ptr %58, i32 0, i32 3
  %60 = load i64, ptr %59, align 8
  %61 = trunc i64 %60 to i32
  br label %62

62:                                               ; preds = %52
  br label %63

63:                                               ; preds = %62
  br label %64

64:                                               ; preds = %63
  store i32 1, ptr %13, align 4
  %65 = load i64, ptr %10, align 8
  %66 = lshr i64 %65, 32
  %67 = trunc i64 %66 to i32
  %68 = load i64, ptr %10, align 8
  %69 = trunc i64 %68 to i32
  %70 = call i32 (ptr, ...) @pg_printf(ptr noundef @.str.111, ptr noundef %36, i32 noundef %37, i32 noundef %43, i32 noundef %49, i32 noundef %57, i32 noundef %61, i32 noundef %67, i32 noundef %69)
  %71 = load ptr, ptr %6, align 8
  %72 = getelementptr inbounds nuw %struct.RmgrDescData, ptr %71, i32 0, i32 2
  %73 = load ptr, ptr %72, align 8
  %74 = load i8, ptr %9, align 1
  %75 = call ptr %73(i8 noundef zeroext %74)
  store ptr %75, ptr %5, align 8
  %76 = load ptr, ptr %5, align 8
  %77 = icmp eq ptr %76, null
  br i1 %77, label %78, label %83

78:                                               ; preds = %64
  %79 = load i8, ptr %9, align 1
  %80 = zext i8 %79 to i32
  %81 = and i32 %80, -16
  %82 = call i32 (ptr, ...) @pg_printf(ptr noundef @.str.112, i32 noundef %81)
  br label %86

83:                                               ; preds = %64
  %84 = load ptr, ptr %5, align 8
  %85 = call i32 (ptr, ...) @pg_printf(ptr noundef @.str.113, ptr noundef %84)
  br label %86

86:                                               ; preds = %83, %78
  call void @initStringInfo(ptr noundef %11)
  %87 = load ptr, ptr %6, align 8
  %88 = getelementptr inbounds nuw %struct.RmgrDescData, ptr %87, i32 0, i32 1
  %89 = load ptr, ptr %88, align 8
  %90 = load ptr, ptr %4, align 8
  call void %89(ptr noundef %11, ptr noundef %90)
  %91 = getelementptr inbounds nuw %struct.StringInfoData, ptr %11, i32 0, i32 0
  %92 = load ptr, ptr %91, align 8
  %93 = call i32 (ptr, ...) @pg_printf(ptr noundef @.str.114, ptr noundef %92)
  call void @resetStringInfo(ptr noundef %11)
  %94 = load ptr, ptr %4, align 8
  %95 = load ptr, ptr %3, align 8
  %96 = getelementptr inbounds nuw %struct.XLogDumpConfig, ptr %95, i32 0, i32 1
  %97 = load i8, ptr %96, align 1, !range !8, !noundef !9
  %98 = trunc i8 %97 to i1
  call void @XLogRecGetBlockRefInfo(ptr noundef %94, i1 noundef zeroext true, i1 noundef zeroext %98, ptr noundef %11, ptr noundef null)
  %99 = getelementptr inbounds nuw %struct.StringInfoData, ptr %11, i32 0, i32 0
  %100 = load ptr, ptr %99, align 8
  %101 = call i32 (ptr, ...) @pg_printf(ptr noundef @.str.114, ptr noundef %100)
  %102 = getelementptr inbounds nuw %struct.StringInfoData, ptr %11, i32 0, i32 0
  %103 = load ptr, ptr %102, align 8
  call void @pfree(ptr noundef %103)
  call void @llvm.lifetime.end.p0(i64 24, ptr %11) #10
  call void @llvm.lifetime.end.p0(i64 8, ptr %10) #10
  call void @llvm.lifetime.end.p0(i64 1, ptr %9) #10
  call void @llvm.lifetime.end.p0(i64 4, ptr %8) #10
  call void @llvm.lifetime.end.p0(i64 4, ptr %7) #10
  call void @llvm.lifetime.end.p0(i64 8, ptr %6) #10
  call void @llvm.lifetime.end.p0(i64 8, ptr %5) #10
  ret void
}