; Function Attrs: nounwind uwtable
define internal fastcc void @XLogDumpDisplayRecord(ptr noundef nonnull readonly captures(none) %0, ptr noundef nonnull %1) unnamed_addr #0 {
  %3 = alloca i32, align 4
  %4 = alloca i32, align 4
  %5 = alloca %struct.StringInfoData, align 8
  %6 = getelementptr inbounds nuw i8, ptr %1, i64 104
  %7 = load ptr, ptr %6, align 8
  %8 = getelementptr inbounds nuw i8, ptr %7, i64 57
  %9 = load i8, ptr %8, align 1
  %10 = tail call ptr @GetRmgrDesc(i8 noundef zeroext %9) #16
  call void @llvm.lifetime.start.p0(i64 4, ptr nonnull %3) #16
  call void @llvm.lifetime.start.p0(i64 4, ptr nonnull %4) #16
  %11 = load ptr, ptr %6, align 8
  %12 = getelementptr inbounds nuw i8, ptr %11, i64 56
  %13 = load i8, ptr %12, align 8
  %14 = getelementptr inbounds nuw i8, ptr %11, i64 48
  %15 = load i64, ptr %14, align 8
  call void @llvm.lifetime.start.p0(i64 24, ptr nonnull %5) #16
  call void @XLogRecGetLen(ptr noundef nonnull %1, ptr noundef nonnull %3, ptr noundef nonnull %4) #16
  %16 = load ptr, ptr %10, align 8
  %17 = load i32, ptr %3, align 4
  %18 = load ptr, ptr %6, align 8
  %19 = getelementptr inbounds nuw i8, ptr %18, i64 40
  %20 = load i32, ptr %19, align 8
  %21 = getelementptr inbounds nuw i8, ptr %18, i64 44
  %22 = load i32, ptr %21, align 4
  %23 = getelementptr inbounds nuw i8, ptr %1, i64 40
  %24 = load i64, ptr %23, align 8
  %25 = lshr i64 %24, 32
  %26 = trunc nuw i64 %25 to i32
  %27 = trunc i64 %24 to i32
  %28 = lshr i64 %15, 32
  %29 = trunc nuw i64 %28 to i32
  %30 = trunc i64 %15 to i32
  %31 = call i32 (ptr, ...) @pg_printf(ptr noundef nonnull @.str.111, ptr noundef %16, i32 noundef %17, i32 noundef %20, i32 noundef %22, i32 noundef %26, i32 noundef %27, i32 noundef %29, i32 noundef %30) #16
  %32 = getelementptr inbounds nuw i8, ptr %10, i64 16
  %33 = load ptr, ptr %32, align 8
  %34 = call ptr %33(i8 noundef zeroext %13) #16
  %35 = icmp eq ptr %34, null
  br i1 %35, label %36, label %40

36:                                               ; preds = %2
  %37 = and i8 %13, -16
  %38 = zext i8 %37 to i32
  %39 = call i32 (ptr, ...) @pg_printf(ptr noundef nonnull @.str.112, i32 noundef %38) #16
  br label %42

40:                                               ; preds = %2
  %41 = call i32 (ptr, ...) @pg_printf(ptr noundef nonnull @.str.113, ptr noundef nonnull %34) #16
  br label %42

42:                                               ; preds = %40, %36
  call void @initStringInfo(ptr noundef nonnull %5) #16
  %43 = getelementptr inbounds nuw i8, ptr %10, i64 8
  %44 = load ptr, ptr %43, align 8
  call void %44(ptr noundef nonnull %5, ptr noundef nonnull %1) #16
  %45 = load ptr, ptr %5, align 8
  %46 = call i32 (ptr, ...) @pg_printf(ptr noundef nonnull @.str.114, ptr noundef %45) #16
  call void @resetStringInfo(ptr noundef nonnull %5) #16
  %47 = getelementptr inbounds nuw i8, ptr %0, i64 1
  %48 = load i8, ptr %47, align 1, !range !8, !noundef !9
  %49 = trunc nuw i8 %48 to i1
  call void @XLogRecGetBlockRefInfo(ptr noundef nonnull %1, i1 noundef zeroext true, i1 noundef zeroext %49, ptr noundef nonnull %5, ptr noundef null) #16
  %50 = load ptr, ptr %5, align 8
  %51 = call i32 (ptr, ...) @pg_printf(ptr noundef nonnull @.str.114, ptr noundef %50) #16
  %52 = load ptr, ptr %5, align 8
  call void @pfree(ptr noundef %52) #16
  call void @llvm.lifetime.end.p0(i64 24, ptr nonnull %5) #16
  call void @llvm.lifetime.end.p0(i64 4, ptr nonnull %4) #16
  call void @llvm.lifetime.end.p0(i64 4, ptr nonnull %3) #16
  ret void
}